; ModuleID = 'source-C-CXX/57/83.c'
source_filename = "source-C-CXX/57/83.c"
target datalayout = "e-m:e-p270:32:32-p271:32:32-p272:64:64-i64:64-f80:128-n8:16:32:64-S128"
target triple = "x86_64-pc-linux-gnu"

%struct._IO_FILE = type { i32, i8*, i8*, i8*, i8*, i8*, i8*, i8*, i8*, i8*, i8*, i8*, %struct._IO_marker*, %struct._IO_FILE*, i32, i32, i64, i16, i8, [1 x i8], i8*, i64, %struct._IO_codecvt*, %struct._IO_wide_data*, %struct._IO_FILE*, i8*, i64, i32, [20 x i8] }
%struct._IO_marker = type opaque
%struct._IO_codecvt = type opaque
%struct._IO_wide_data = type opaque

@.str = private unnamed_addr constant [3 x i8] c"%d\00", align 1
@stdin = external local_unnamed_addr global %struct._IO_FILE*, align 8
@str = private unnamed_addr constant [2 x i8] c"0\00", align 1
@str.3 = private unnamed_addr constant [2 x i8] c"1\00", align 1

; Function Attrs: nounwind sspstrong uwtable
define dso_local void @main() local_unnamed_addr #0 {
  %1 = alloca i32, align 4
  %2 = alloca [81 x i8], align 16
  %3 = bitcast i32* %1 to i8*
  call void @llvm.lifetime.start.p0i8(i64 4, i8* nonnull %3) #5
  %4 = getelementptr inbounds [81 x i8], [81 x i8]* %2, i64 0, i64 0
  call void @llvm.lifetime.start.p0i8(i64 81, i8* nonnull %4) #5
  %5 = call i32 (i8*, ...) @__isoc99_scanf(i8* getelementptr inbounds ([3 x i8], [3 x i8]* @.str, i64 0, i64 0), i32* nonnull %1)
  %6 = load %struct._IO_FILE*, %struct._IO_FILE** @stdin, align 8, !tbaa !5
  %7 = call i32 @getc(%struct._IO_FILE* %6) #5
  %8 = load i32, i32* %1, align 4, !tbaa !9
  %9 = icmp sgt i32 %8, 0
  br i1 %9, label %10, label %38

10:                                               ; preds = %0, %32
  %11 = phi i32 [ %35, %32 ], [ 0, %0 ]
  %12 = call i32 (i8*, ...) bitcast (i32 (...)* @gets to i32 (i8*, ...)*)(i8* nonnull %4) #5
  %13 = load i8, i8* %4, align 16, !tbaa !11
  %14 = icmp eq i8 %13, 95
  %15 = and i8 %13, -33
  %16 = add i8 %15, -65
  %17 = icmp ult i8 %16, 26
  %18 = or i1 %17, %14
  br i1 %18, label %19, label %32

19:                                               ; preds = %10, %30
  %20 = phi i64 [ %31, %30 ], [ 1, %10 ]
  %21 = getelementptr inbounds [81 x i8], [81 x i8]* %2, i64 0, i64 %20
  %22 = load i8, i8* %21, align 1, !tbaa !11
  switch i8 %22, label %23 [
    i8 0, label %32
    i8 95, label %30
  ]

23:                                               ; preds = %19
  %24 = and i8 %22, -33
  %25 = add i8 %24, -65
  %26 = icmp ult i8 %25, 26
  %27 = add i8 %22, -48
  %28 = icmp ult i8 %27, 10
  %29 = select i1 %26, i1 true, i1 %28
  br i1 %29, label %30, label %32

30:                                               ; preds = %23, %19
  %31 = add nuw i64 %20, 1
  br label %19, !llvm.loop !12

32:                                               ; preds = %23, %19, %10
  %33 = phi i8* [ getelementptr inbounds ([2 x i8], [2 x i8]* @str, i64 0, i64 0), %10 ], [ getelementptr inbounds ([2 x i8], [2 x i8]* @str.3, i64 0, i64 0), %19 ], [ getelementptr inbounds ([2 x i8], [2 x i8]* @str, i64 0, i64 0), %23 ]
  %34 = call i32 @puts(i8* nonnull dereferenceable(1) %33)
  %35 = add nuw nsw i32 %11, 1
  %36 = load i32, i32* %1, align 4, !tbaa !9
  %37 = icmp slt i32 %35, %36
  br i1 %37, label %10, label %38, !llvm.loop !14

38:                                               ; preds = %32, %0
  call void @llvm.lifetime.end.p0i8(i64 81, i8* nonnull %4) #5
  call void @llvm.lifetime.end.p0i8(i64 4, i8* nonnull %3) #5
  ret void
}

; Function Attrs: argmemonly mustprogress nofree nosync nounwind willreturn
declare void @llvm.lifetime.start.p0i8(i64 immarg, i8* nocapture) #1

; Function Attrs: nofree nounwind
declare noundef i32 @__isoc99_scanf(i8* nocapture noundef readonly, ...) local_unnamed_addr #2

declare i32 @gets(...) local_unnamed_addr #3

; Function Attrs: argmemonly mustprogress nofree nosync nounwind willreturn
declare void @llvm.lifetime.end.p0i8(i64 immarg, i8* nocapture) #1

; Function Attrs: nofree nounwind
declare noundef i32 @getc(%struct._IO_FILE* nocapture noundef) local_unnamed_addr #2

; Function Attrs: nofree nounwind
declare noundef i32 @puts(i8* nocapture noundef readonly) local_unnamed_addr #4


!llvm.module.flags = !{!0, !1, !2, !3}
!llvm.ident = !{!4}

!0 = !{i32 1, !"wchar_size", i32 4}
!1 = !{i32 7, !"PIC Level", i32 2}
!2 = !{i32 7, !"PIE Level", i32 2}
!3 = !{i32 7, !"uwtable", i32 1}
!4 = !{!"clang version 13.0.0"}
!5 = !{!6, !6, i64 0}
!6 = !{!"any pointer", !7, i64 0}
!7 = !{!"omnipotent char", !8, i64 0}
!8 = !{!"Simple C/C++ TBAA"}
!9 = !{!10, !10, i64 0}
!10 = !{!"int", !7, i64 0}
!11 = !{!7, !7, i64 0}
!12 = distinct !{!12, !13}
!13 = !{!"llvm.loop.mustprogress"}
!14 = distinct !{!14, !13}
